; Function Attrs: mustprogress nounwind uwtable
define noundef i32 @llama_model_meta_key_by_index(ptr nocapture noundef readonly %model, i32 noundef %i, ptr nocapture noundef writeonly %buf, i64 noundef %buf_size) local_unnamed_addr #0 {
entry:
  %cmp = icmp slt i32 %i, 0
  br i1 %cmp, label %if.then, label %lor.lhs.false

lor.lhs.false:                                    ; preds = %entry
  %_M_element_count.i.i = getelementptr inbounds i8, ptr %model, i64 480
  %0 = load i64, ptr %_M_element_count.i.i, align 8
  %conv = trunc i64 %0 to i32
  %cmp1.not = icmp sgt i32 %conv, %i
  br i1 %cmp1.not, label %if.end4, label %if.then

if.then:                                          ; preds = %lor.lhs.false, %entry
  %cmp2.not = icmp eq i64 %buf_size, 0
  br i1 %cmp2.not, label %return, label %if.then3

if.then3:                                         ; preds = %if.then
  store i8 0, ptr %buf, align 1
  br label %return

if.end4:                                          ; preds = %lor.lhs.false
  %_M_before_begin.i.i.i = getelementptr inbounds i8, ptr %model, i64 472
  %1 = load ptr, ptr %_M_before_begin.i.i.i, align 8
  %tobool.not1.i.i = icmp eq i32 %i, 0
  br i1 %tobool.not1.i.i, label %_ZSt7advanceINSt8__detail20_Node_const_iteratorISt4pairIKNSt7__cxx1112basic_stringIcSt11char_traitsIcESaIcEEES8_ELb0ELb1EEEiEvRT_T0_.exit, label %while.body.preheader.i.i

while.body.preheader.i.i:                         ; preds = %if.end4
  %conv.i = zext nneg i32 %i to i64
  br label %while.body.i.i

while.body.i.i:                                   ; preds = %while.body.i.i, %while.body.preheader.i.i
  %__n.addr.02.i.i = phi i64 [ %dec.i.i, %while.body.i.i ], [ %conv.i, %while.body.preheader.i.i ]
  %2 = phi ptr [ %3, %while.body.i.i ], [ %1, %while.body.preheader.i.i ]
  %dec.i.i = add nsw i64 %__n.addr.02.i.i, -1
  %3 = load ptr, ptr %2, align 8
  %tobool.not.i.i = icmp eq i64 %dec.i.i, 0
  br i1 %tobool.not.i.i, label %_ZSt7advanceINSt8__detail20_Node_const_iteratorISt4pairIKNSt7__cxx1112basic_stringIcSt11char_traitsIcESaIcEEES8_ELb0ELb1EEEiEvRT_T0_.exit, label %while.body.i.i, !llvm.loop !129

_ZSt7advanceINSt8__detail20_Node_const_iteratorISt4pairIKNSt7__cxx1112basic_stringIcSt11char_traitsIcESaIcEEES8_ELb0ELb1EEEiEvRT_T0_.exit: ; preds = %while.body.i.i, %if.end4
  %it.sroa.0.0 = phi ptr [ %1, %if.end4 ], [ %3, %while.body.i.i ]
  %add.ptr.i = getelementptr inbounds i8, ptr %it.sroa.0.0, i64 8
  %call9 = tail call noundef ptr @_ZNKSt7__cxx1112basic_stringIcSt11char_traitsIcESaIcEE5c_strEv(ptr noundef nonnull align 8 dereferenceable(32) %add.ptr.i) #44
  %call10 = tail call i32 (ptr, i64, ptr, ...) @snprintf(ptr noundef %buf, i64 noundef %buf_size, ptr noundef nonnull @.str.188, ptr noundef %call9) #44
  br label %return

return:                                           ; preds = %if.then, %if.then3, %_ZSt7advanceINSt8__detail20_Node_const_iteratorISt4pairIKNSt7__cxx1112basic_stringIcSt11char_traitsIcESaIcEEES8_ELb0ELb1EEEiEvRT_T0_.exit
  %retval.0 = phi i32 [ %call10, %_ZSt7advanceINSt8__detail20_Node_const_iteratorISt4pairIKNSt7__cxx1112basic_stringIcSt11char_traitsIcESaIcEEES8_ELb0ELb1EEEiEvRT_T0_.exit ], [ -1, %if.then3 ], [ -1, %if.then ]
  ret i32 %retval.0
}